target datalayout = "e-m:e-p270:32:32-p271:32:32-p272:64:64-i64:64-i128:128-f80:128-n8:16:32:64-S128"
target triple = "x86_64-pc-linux-gnu"

%struct.indexed_table_ref_iter = type { ptr, %struct.reftable_buf, ptr, i32, i32, %struct.block_reader, %struct.block_iter, i32 }
%struct.reftable_buf = type { i64, i64, ptr }
%struct.block_reader = type { i32, %struct.reftable_block, i32, ptr, ptr, i64, i32, ptr, i16, i32 }
%struct.reftable_block = type { ptr, i64, %struct.reftable_block_source }
%struct.reftable_block_source = type { ptr, ptr }
%struct.block_iter = type { i32, ptr, i64, i32, %struct.reftable_buf, %struct.reftable_buf }

; Function Attrs: nounwind uwtable
define internal void @indexed_table_ref_iter_close(ptr noundef %0) #0 {
  %2 = alloca ptr, align 8
  %3 = alloca ptr, align 8
  store ptr %0, ptr %2, align 8, !tbaa !37
  call void @llvm.lifetime.start.p0(i64 8, ptr %3) #7
  %4 = load ptr, ptr %2, align 8, !tbaa !37
  store ptr %4, ptr %3, align 8, !tbaa !30
  %5 = load ptr, ptr %3, align 8, !tbaa !30
  %6 = getelementptr inbounds nuw %struct.indexed_table_ref_iter, ptr %5, i32 0, i32 6
  call void @block_iter_close(ptr noundef %6)
  %7 = load ptr, ptr %3, align 8, !tbaa !30
  %8 = getelementptr inbounds nuw %struct.indexed_table_ref_iter, ptr %7, i32 0, i32 5
  %9 = getelementptr inbounds nuw %struct.block_reader, ptr %8, i32 0, i32 1
  call void @reftable_block_done(ptr noundef %9)
  %10 = load ptr, ptr %3, align 8, !tbaa !30
  %11 = getelementptr inbounds nuw %struct.indexed_table_ref_iter, ptr %10, i32 0, i32 2
  %12 = load ptr, ptr %11, align 8, !tbaa !49
  call void @reftable_free(ptr noundef %12)
  %13 = load ptr, ptr %3, align 8, !tbaa !30
  %14 = getelementptr inbounds nuw %struct.indexed_table_ref_iter, ptr %13, i32 0, i32 1
  call void @reftable_buf_release(ptr noundef %14)
  call void @llvm.lifetime.end.p0(i64 8, ptr %3) #7
  ret void
}