; Function Attrs: nounwind uwtable
define internal void @indexed_table_ref_iter_close(ptr noundef %0) #0 {
  %2 = getelementptr inbounds nuw i8, ptr %0, i64 144
  tail call void @block_iter_close(ptr noundef nonnull %2) #10
  %3 = getelementptr inbounds nuw i8, ptr %0, i64 56
  tail call void @reftable_block_done(ptr noundef nonnull %3) #10
  %4 = getelementptr inbounds nuw i8, ptr %0, i64 32
  %5 = load ptr, ptr %4, align 8, !tbaa !29
  tail call void @reftable_free(ptr noundef %5) #10
  %6 = getelementptr inbounds nuw i8, ptr %0, i64 8
  tail call void @reftable_buf_release(ptr noundef nonnull %6) #10
  ret void
}